; ModuleID = '23/1042.c'
source_filename = "23/1042.c"
target datalayout = "e-m:e-p270:32:32-p271:32:32-p272:64:64-i64:64-f80:128-n8:16:32:64-S128"
target triple = "x86_64-pc-linux-gnu"

@.str = private unnamed_addr constant [3 x i8] c"%c\00", align 1
@.str.1 = private unnamed_addr constant [2 x i8] c" \00", align 1

; Function Attrs: noinline nounwind uwtable
define dso_local i32 @main() #0 {
  %1 = alloca i32, align 4
  %2 = alloca [200 x i8], align 16
  %3 = alloca i32, align 4
  %4 = alloca i32, align 4
  %5 = alloca i32, align 4
  %6 = alloca i32, align 4
  %7 = alloca i32, align 4
  %8 = alloca i32, align 4
  %9 = alloca i32, align 4
  %10 = alloca [200 x i32], align 16
  %11 = alloca [200 x i32], align 16
  %12 = alloca i32, align 4
  store i32 0, i32* %1, align 4
  %13 = bitcast [200 x i32]* %10 to i8*
  call void @llvm.memset.p0i8.i64(i8* align 16 %13, i8 0, i64 800, i1 false)
  %14 = getelementptr inbounds [200 x i8], [200 x i8]* %2, i64 0, i64 0
  %15 = call i32 (i8*, ...) bitcast (i32 (...)* @gets to i32 (i8*, ...)*)(i8* %14)
  store i32 1, i32* %3, align 4
  %16 = getelementptr inbounds [200 x i32], [200 x i32]* %11, i64 0, i64 1
  store i32 0, i32* %16, align 4
  %17 = getelementptr inbounds [200 x i8], [200 x i8]* %2, i64 0, i64 0
  %18 = call i64 @strlen(i8* %17) #4
  %19 = trunc i64 %18 to i32
  store i32 %19, i32* %5, align 4
  store i32 0, i32* %4, align 4
  br label %20

20:                                               ; preds = %48, %0
  %21 = load i32, i32* %4, align 4
  %22 = load i32, i32* %5, align 4
  %23 = icmp slt i32 %21, %22
  br i1 %23, label %24, label %51

24:                                               ; preds = %20
  %25 = load i32, i32* %4, align 4
  %26 = sext i32 %25 to i64
  %27 = getelementptr inbounds [200 x i8], [200 x i8]* %2, i64 0, i64 %26
  %28 = load i8, i8* %27, align 1
  %29 = sext i8 %28 to i32
  %30 = icmp eq i32 %29, 32
  br i1 %30, label %31, label %42

31:                                               ; preds = %24
  %32 = load i32, i32* %3, align 4
  %33 = add nsw i32 %32, 1
  store i32 %33, i32* %3, align 4
  %34 = load i32, i32* %4, align 4
  %35 = add nsw i32 %34, 1
  %36 = load i32, i32* %3, align 4
  %37 = sext i32 %36 to i64
  %38 = getelementptr inbounds [200 x i32], [200 x i32]* %11, i64 0, i64 %37
  store i32 %35, i32* %38, align 4
  %39 = load i32, i32* %3, align 4
  %40 = sext i32 %39 to i64
  %41 = getelementptr inbounds [200 x i32], [200 x i32]* %10, i64 0, i64 %40
  store i32 -1, i32* %41, align 4
  br label %42

42:                                               ; preds = %31, %24
  %43 = load i32, i32* %3, align 4
  %44 = sext i32 %43 to i64
  %45 = getelementptr inbounds [200 x i32], [200 x i32]* %10, i64 0, i64 %44
  %46 = load i32, i32* %45, align 4
  %47 = add nsw i32 %46, 1
  store i32 %47, i32* %45, align 4
  br label %48

48:                                               ; preds = %42
  %49 = load i32, i32* %4, align 4
  %50 = add nsw i32 %49, 1
  store i32 %50, i32* %4, align 4
  br label %20

51:                                               ; preds = %20
  %52 = load i32, i32* %3, align 4
  store i32 %52, i32* %4, align 4
  br label %53

53:                                               ; preds = %85, %51
  %54 = load i32, i32* %4, align 4
  %55 = icmp sgt i32 %54, 1
  br i1 %55, label %56, label %88

56:                                               ; preds = %53
  %57 = load i32, i32* %4, align 4
  %58 = sext i32 %57 to i64
  %59 = getelementptr inbounds [200 x i32], [200 x i32]* %11, i64 0, i64 %58
  %60 = load i32, i32* %59, align 4
  store i32 %60, i32* %12, align 4
  br label %61

61:                                               ; preds = %80, %56
  %62 = load i32, i32* %12, align 4
  %63 = load i32, i32* %4, align 4
  %64 = sext i32 %63 to i64
  %65 = getelementptr inbounds [200 x i32], [200 x i32]* %11, i64 0, i64 %64
  %66 = load i32, i32* %65, align 4
  %67 = load i32, i32* %4, align 4
  %68 = sext i32 %67 to i64
  %69 = getelementptr inbounds [200 x i32], [200 x i32]* %10, i64 0, i64 %68
  %70 = load i32, i32* %69, align 4
  %71 = add nsw i32 %66, %70
  %72 = icmp slt i32 %62, %71
  br i1 %72, label %73, label %83

73:                                               ; preds = %61
  %74 = load i32, i32* %12, align 4
  %75 = sext i32 %74 to i64
  %76 = getelementptr inbounds [200 x i8], [200 x i8]* %2, i64 0, i64 %75
  %77 = load i8, i8* %76, align 1
  %78 = sext i8 %77 to i32
  %79 = call i32 (i8*, ...) @printf(i8* getelementptr inbounds ([3 x i8], [3 x i8]* @.str, i64 0, i64 0), i32 %78)
  br label %80

80:                                               ; preds = %73
  %81 = load i32, i32* %12, align 4
  %82 = add nsw i32 %81, 1
  store i32 %82, i32* %12, align 4
  br label %61

83:                                               ; preds = %61
  %84 = call i32 (i8*, ...) @printf(i8* getelementptr inbounds ([2 x i8], [2 x i8]* @.str.1, i64 0, i64 0))
  br label %85

85:                                               ; preds = %83
  %86 = load i32, i32* %4, align 4
  %87 = add nsw i32 %86, -1
  store i32 %87, i32* %4, align 4
  br label %53

88:                                               ; preds = %53
  %89 = getelementptr inbounds [200 x i32], [200 x i32]* %11, i64 0, i64 1
  %90 = load i32, i32* %89, align 4
  store i32 %90, i32* %12, align 4
  br label %91

91:                                               ; preds = %106, %88
  %92 = load i32, i32* %12, align 4
  %93 = getelementptr inbounds [200 x i32], [200 x i32]* %11, i64 0, i64 1
  %94 = load i32, i32* %93, align 4
  %95 = getelementptr inbounds [200 x i32], [200 x i32]* %10, i64 0, i64 1
  %96 = load i32, i32* %95, align 4
  %97 = add nsw i32 %94, %96
  %98 = icmp slt i32 %92, %97
  br i1 %98, label %99, label %109

99:                                               ; preds = %91
  %100 = load i32, i32* %12, align 4
  %101 = sext i32 %100 to i64
  %102 = getelementptr inbounds [200 x i8], [200 x i8]* %2, i64 0, i64 %101
  %103 = load i8, i8* %102, align 1
  %104 = sext i8 %103 to i32
  %105 = call i32 (i8*, ...) @printf(i8* getelementptr inbounds ([3 x i8], [3 x i8]* @.str, i64 0, i64 0), i32 %104)
  br label %106

106:                                              ; preds = %99
  %107 = load i32, i32* %12, align 4
  %108 = add nsw i32 %107, 1
  store i32 %108, i32* %12, align 4
  br label %91

109:                                              ; preds = %91
  ret i32 0
}

; Function Attrs: argmemonly nounwind willreturn
declare void @llvm.memset.p0i8.i64(i8* nocapture writeonly, i8, i64, i1 immarg) #1

declare dso_local i32 @gets(...) #2

; Function Attrs: nounwind readonly
declare dso_local i64 @strlen(i8*) #3

declare dso_local i32 @printf(i8*, ...) #2


!llvm.module.flags = !{!0}
!llvm.ident = !{!1}

!0 = !{i32 1, !"wchar_size", i32 4}
!1 = !{!"clang version 10.0.0-4ubuntu1 "}
